target datalayout = "e-m:e-p270:32:32-p271:32:32-p272:64:64-i64:64-i128:128-f80:128-n8:16:32:64-S128"
target triple = "x86_64-pc-linux-gnu"

%struct.Abc_Ntk_t_ = type { i32, i32, ptr, ptr, ptr, ptr, ptr, ptr, ptr, ptr, ptr, ptr, ptr, [11 x i32], i32, i32, i32, i32, ptr, i32, ptr, ptr, i32, i32, i32, double, i32, %struct.Vec_Int_t_, ptr, ptr, ptr, ptr, ptr, float, i32, ptr, ptr, ptr, ptr, ptr, ptr, ptr, ptr, ptr, ptr, ptr, ptr, ptr, ptr, ptr, ptr, ptr, ptr, ptr, ptr, ptr, ptr }
%struct.Vec_Int_t_ = type { i32, i32, ptr }
%struct.Abc_Obj_t_ = type { ptr, ptr, i32, i32, %struct.Vec_Int_t_, %struct.Vec_Int_t_, %union.anon, %union.anon.0 }
%union.anon = type { ptr }
%union.anon.0 = type { ptr }
%struct.Vec_Ptr_t_ = type { i32, i32, ptr }

; Function Attrs: inlinehint nounwind uwtable
define internal ptr @Abc_ObjFanin1(ptr noundef %0) #2 {
  %2 = alloca ptr, align 8
  store ptr %0, ptr %2, align 8, !tbaa !26
  %3 = load ptr, ptr %2, align 8, !tbaa !26
  %4 = getelementptr inbounds nuw %struct.Abc_Obj_t_, ptr %3, i32 0, i32 0
  %5 = load ptr, ptr %4, align 8, !tbaa !79
  %6 = getelementptr inbounds nuw %struct.Abc_Ntk_t_, ptr %5, i32 0, i32 5
  %7 = load ptr, ptr %6, align 8, !tbaa !10
  %8 = getelementptr inbounds nuw %struct.Vec_Ptr_t_, ptr %7, i32 0, i32 2
  %9 = load ptr, ptr %8, align 8, !tbaa !71
  %10 = load ptr, ptr %2, align 8, !tbaa !26
  %11 = getelementptr inbounds nuw %struct.Abc_Obj_t_, ptr %10, i32 0, i32 4
  %12 = getelementptr inbounds nuw %struct.Vec_Int_t_, ptr %11, i32 0, i32 2
  %13 = load ptr, ptr %12, align 8, !tbaa !73
  %14 = getelementptr inbounds i32, ptr %13, i64 1
  %15 = load i32, ptr %14, align 4, !tbaa !8
  %16 = sext i32 %15 to i64
  %17 = getelementptr inbounds ptr, ptr %9, i64 %16
  %18 = load ptr, ptr %17, align 8, !tbaa !72
  ret ptr %18
}

; Function Attrs: inlinehint nounwind uwtable
define internal ptr @Abc_ObjFanin0(ptr noundef %0) #2 {
  %2 = alloca ptr, align 8
  store ptr %0, ptr %2, align 8, !tbaa !26
  %3 = load ptr, ptr %2, align 8, !tbaa !26
  %4 = getelementptr inbounds nuw %struct.Abc_Obj_t_, ptr %3, i32 0, i32 0
  %5 = load ptr, ptr %4, align 8, !tbaa !79
  %6 = getelementptr inbounds nuw %struct.Abc_Ntk_t_, ptr %5, i32 0, i32 5
  %7 = load ptr, ptr %6, align 8, !tbaa !10
  %8 = getelementptr inbounds nuw %struct.Vec_Ptr_t_, ptr %7, i32 0, i32 2
  %9 = load ptr, ptr %8, align 8, !tbaa !71
  %10 = load ptr, ptr %2, align 8, !tbaa !26
  %11 = getelementptr inbounds nuw %struct.Abc_Obj_t_, ptr %10, i32 0, i32 4
  %12 = getelementptr inbounds nuw %struct.Vec_Int_t_, ptr %11, i32 0, i32 2
  %13 = load ptr, ptr %12, align 8, !tbaa !73
  %14 = getelementptr inbounds i32, ptr %13, i64 0
  %15 = load i32, ptr %14, align 4, !tbaa !8
  %16 = sext i32 %15 to i64
  %17 = getelementptr inbounds ptr, ptr %9, i64 %16
  %18 = load ptr, ptr %17, align 8, !tbaa !72
  ret ptr %18
}

; Function Attrs: nounwind uwtable
define ptr @Abc_NodeReadCuts(ptr noundef %0, ptr noundef %1) #0 {
  %3 = alloca ptr, align 8
  %4 = alloca ptr, align 8
  store ptr %0, ptr %3, align 8, !tbaa !72
  store ptr %1, ptr %4, align 8, !tbaa !26
  %5 = load ptr, ptr %3, align 8, !tbaa !72
  %6 = load ptr, ptr %4, align 8, !tbaa !26
  %7 = getelementptr inbounds nuw %struct.Abc_Obj_t_, ptr %6, i32 0, i32 2
  %8 = load i32, ptr %7, align 8, !tbaa !48
  %9 = call ptr @Cut_NodeReadCutsNew(ptr noundef %5, i32 noundef %8)
  ret ptr %9
}

; Function Attrs: nounwind uwtable
define ptr @Abc_NodeGetCutsRecursive(ptr noundef %0, ptr noundef %1, i32 noundef %2, i32 noundef %3) #0 {
  %5 = alloca ptr, align 8
  %6 = alloca ptr, align 8
  %7 = alloca ptr, align 8
  %8 = alloca i32, align 4
  %9 = alloca i32, align 4
  %10 = alloca ptr, align 8
  %11 = alloca i32, align 4
  store ptr %0, ptr %6, align 8, !tbaa !72
  store ptr %1, ptr %7, align 8, !tbaa !26
  store i32 %2, ptr %8, align 4, !tbaa !8
  store i32 %3, ptr %9, align 4, !tbaa !8
  call void @llvm.lifetime.start.p0(i64 8, ptr %10) #10
  %12 = load ptr, ptr %6, align 8, !tbaa !72
  %13 = load ptr, ptr %7, align 8, !tbaa !26
  %14 = call ptr @Abc_NodeReadCuts(ptr noundef %12, ptr noundef %13)
  store ptr %14, ptr %10, align 8, !tbaa !72
  %15 = icmp ne ptr %14, null
  br i1 %15, label %16, label %18

16:                                               ; preds = %4
  %17 = load ptr, ptr %10, align 8, !tbaa !72
  store ptr %17, ptr %5, align 8
  store i32 1, ptr %11, align 4
  br label %36

18:                                               ; preds = %4
  %19 = load ptr, ptr %6, align 8, !tbaa !72
  %20 = load ptr, ptr %7, align 8, !tbaa !26
  %21 = call ptr @Abc_ObjFanin0(ptr noundef %20)
  %22 = load i32, ptr %8, align 4, !tbaa !8
  %23 = load i32, ptr %9, align 4, !tbaa !8
  %24 = call ptr @Abc_NodeGetCutsRecursive(ptr noundef %19, ptr noundef %21, i32 noundef %22, i32 noundef %23)
  %25 = load ptr, ptr %6, align 8, !tbaa !72
  %26 = load ptr, ptr %7, align 8, !tbaa !26
  %27 = call ptr @Abc_ObjFanin1(ptr noundef %26)
  %28 = load i32, ptr %8, align 4, !tbaa !8
  %29 = load i32, ptr %9, align 4, !tbaa !8
  %30 = call ptr @Abc_NodeGetCutsRecursive(ptr noundef %25, ptr noundef %27, i32 noundef %28, i32 noundef %29)
  %31 = load ptr, ptr %6, align 8, !tbaa !72
  %32 = load ptr, ptr %7, align 8, !tbaa !26
  %33 = load i32, ptr %8, align 4, !tbaa !8
  %34 = load i32, ptr %9, align 4, !tbaa !8
  %35 = call ptr @Abc_NodeGetCuts(ptr noundef %31, ptr noundef %32, i32 noundef %33, i32 noundef %34)
  store ptr %35, ptr %5, align 8
  store i32 1, ptr %11, align 4
  br label %36

36:                                               ; preds = %18, %16
  call void @llvm.lifetime.end.p0(i64 8, ptr %10) #10
  %37 = load ptr, ptr %5, align 8
  ret ptr %37
}