; Function Attrs: nounwind uwtable
define ptr @Abc_NodeGetCutsRecursive(ptr noundef %0, ptr noundef %1, i32 noundef %2, i32 noundef %3) local_unnamed_addr #0 {
  %5 = getelementptr inbounds nuw i8, ptr %1, i64 16
  %6 = load i32, ptr %5, align 8, !tbaa !50
  %7 = tail call ptr @Cut_NodeReadCutsNew(ptr noundef %0, i32 noundef %6) #13
  %.not = icmp eq ptr %7, null
  br i1 %.not, label %8, label %common.ret19

common.ret19:                                     ; preds = %4, %8
  %common.ret19.op = phi ptr [ %23, %8 ], [ %7, %4 ]
  ret ptr %common.ret19.op

8:                                                ; preds = %4
  %.val = load ptr, ptr %1, align 8, !tbaa !48
  %9 = getelementptr i8, ptr %1, i64 32
  %.val16 = load ptr, ptr %9, align 8, !tbaa !49
  %10 = getelementptr i8, ptr %.val, i64 32
  %.val.val = load ptr, ptr %10, align 8, !tbaa !3
  %.val16.val = load i32, ptr %.val16, align 4, !tbaa !41
  %11 = getelementptr i8, ptr %.val.val, i64 8
  %.val.val.val = load ptr, ptr %11, align 8, !tbaa !26
  %12 = sext i32 %.val16.val to i64
  %13 = getelementptr inbounds ptr, ptr %.val.val.val, i64 %12
  %14 = load ptr, ptr %13, align 8, !tbaa !27
  %15 = tail call ptr @Abc_NodeGetCutsRecursive(ptr noundef %0, ptr noundef %14, i32 noundef %2, i32 noundef %3)
  %.val17 = load ptr, ptr %1, align 8, !tbaa !48
  %.val18 = load ptr, ptr %9, align 8, !tbaa !49
  %16 = getelementptr i8, ptr %.val17, i64 32
  %.val17.val = load ptr, ptr %16, align 8, !tbaa !3
  %17 = getelementptr i8, ptr %.val18, i64 4
  %.val18.val = load i32, ptr %17, align 4, !tbaa !41
  %18 = getelementptr i8, ptr %.val17.val, i64 8
  %.val17.val.val = load ptr, ptr %18, align 8, !tbaa !26
  %19 = sext i32 %.val18.val to i64
  %20 = getelementptr inbounds ptr, ptr %.val17.val.val, i64 %19
  %21 = load ptr, ptr %20, align 8, !tbaa !27
  %22 = tail call ptr @Abc_NodeGetCutsRecursive(ptr noundef %0, ptr noundef %21, i32 noundef %2, i32 noundef %3)
  %23 = tail call ptr @Abc_NodeGetCuts(ptr noundef %0, ptr noundef nonnull %1, i32 noundef %2, i32 noundef %3)
  br label %common.ret19
}